target datalayout = "e-m:e-p270:32:32-p271:32:32-p272:64:64-i64:64-i128:128-f80:128-n8:16:32:64-S128"
target triple = "x86_64-pc-linux-gnu"

@.str.11 = private unnamed_addr constant [18 x i8] c"REDIS_VERSION_NUM\00", align 1
@.str.12 = private unnamed_addr constant [14 x i8] c"REDIS_VERSION\00", align 1
@.str.13 = private unnamed_addr constant [12 x i8] c"255.255.255\00", align 1

; Function Attrs: nounwind uwtable
define dso_local void @luaRegisterVersion(ptr noundef %0) #0 {
  %2 = alloca ptr, align 8
  store ptr %0, ptr %2, align 8, !tbaa !5
  %3 = load ptr, ptr %2, align 8, !tbaa !5
  call void @lua_pushstring(ptr noundef %3, ptr noundef @.str.11)
  %4 = load ptr, ptr %2, align 8, !tbaa !5
  call void @lua_pushnumber(ptr noundef %4, double noundef 0x416FFFFFE0000000)
  %5 = load ptr, ptr %2, align 8, !tbaa !5
  call void @lua_settable(ptr noundef %5, i32 noundef -3)
  %6 = load ptr, ptr %2, align 8, !tbaa !5
  call void @lua_pushstring(ptr noundef %6, ptr noundef @.str.12)
  %7 = load ptr, ptr %2, align 8, !tbaa !5
  call void @lua_pushstring(ptr noundef %7, ptr noundef @.str.13)
  %8 = load ptr, ptr %2, align 8, !tbaa !5
  call void @lua_settable(ptr noundef %8, i32 noundef -3)
  ret void
}