; Function Attrs: nounwind uwtable
define dso_local void @luaRegisterVersion(ptr noundef %0) local_unnamed_addr #0 {
  tail call void @lua_pushstring(ptr noundef %0, ptr noundef nonnull @.str.11) #11
  tail call void @lua_pushnumber(ptr noundef %0, double noundef 0x416FFFFFE0000000) #11
  tail call void @lua_settable(ptr noundef %0, i32 noundef -3) #11
  tail call void @lua_pushstring(ptr noundef %0, ptr noundef nonnull @.str.12) #11
  tail call void @lua_pushstring(ptr noundef %0, ptr noundef nonnull @.str.13) #11
  tail call void @lua_settable(ptr noundef %0, i32 noundef -3) #11
  ret void
}